target datalayout = "e-m:e-p270:32:32-p271:32:32-p272:64:64-i64:64-i128:128-f80:128-n8:16:32:64-S128"
target triple = "x86_64-pc-linux-gnu"

; Function Attrs: nounwind uwtable
define internal i32 @all_black(ptr noundef %0, i32 noundef %1, i32 noundef %2) #0 {
  %4 = alloca i32, align 4
  %5 = alloca ptr, align 8
  %6 = alloca i32, align 4
  %7 = alloca i32, align 4
  store ptr %0, ptr %5, align 8, !tbaa !39
  store i32 %1, ptr %6, align 4, !tbaa !36
  store i32 %2, ptr %7, align 4, !tbaa !36
  %8 = load i32, ptr %6, align 4, !tbaa !36
  %9 = icmp sgt i32 %8, 3
  br i1 %9, label %10, label %55

10:                                               ; preds = %3
  %11 = load i32, ptr %6, align 4, !tbaa !36
  %12 = sdiv i32 %11, 2
  store i32 %12, ptr %6, align 4, !tbaa !36
  %13 = load i32, ptr %7, align 4, !tbaa !36
  %14 = sdiv i32 %13, 2
  store i32 %14, ptr %7, align 4, !tbaa !36
  %15 = load ptr, ptr %5, align 8, !tbaa !39
  %16 = load i32, ptr %6, align 4, !tbaa !36
  %17 = load i32, ptr %7, align 4, !tbaa !36
  %18 = call i32 @all_black(ptr noundef %15, i32 noundef %16, i32 noundef %17)
  %19 = icmp ne i32 %18, 0
  br i1 %19, label %20, label %52

20:                                               ; preds = %10
  %21 = load ptr, ptr %5, align 8, !tbaa !39
  %22 = load i32, ptr %6, align 4, !tbaa !36
  %23 = sext i32 %22 to i64
  %24 = getelementptr inbounds i8, ptr %21, i64 %23
  %25 = load i32, ptr %6, align 4, !tbaa !36
  %26 = load i32, ptr %7, align 4, !tbaa !36
  %27 = call i32 @all_black(ptr noundef %24, i32 noundef %25, i32 noundef %26)
  %28 = icmp ne i32 %27, 0
  br i1 %28, label %29, label %52

29:                                               ; preds = %20
  %30 = load ptr, ptr %5, align 8, !tbaa !39
  %31 = load i32, ptr %7, align 4, !tbaa !36
  %32 = mul nsw i32 48, %31
  %33 = sext i32 %32 to i64
  %34 = getelementptr inbounds i8, ptr %30, i64 %33
  %35 = load i32, ptr %6, align 4, !tbaa !36
  %36 = load i32, ptr %7, align 4, !tbaa !36
  %37 = call i32 @all_black(ptr noundef %34, i32 noundef %35, i32 noundef %36)
  %38 = icmp ne i32 %37, 0
  br i1 %38, label %39, label %52

39:                                               ; preds = %29
  %40 = load ptr, ptr %5, align 8, !tbaa !39
  %41 = load i32, ptr %7, align 4, !tbaa !36
  %42 = mul nsw i32 48, %41
  %43 = sext i32 %42 to i64
  %44 = getelementptr inbounds i8, ptr %40, i64 %43
  %45 = load i32, ptr %6, align 4, !tbaa !36
  %46 = sext i32 %45 to i64
  %47 = getelementptr inbounds i8, ptr %44, i64 %46
  %48 = load i32, ptr %6, align 4, !tbaa !36
  %49 = load i32, ptr %7, align 4, !tbaa !36
  %50 = call i32 @all_black(ptr noundef %47, i32 noundef %48, i32 noundef %49)
  %51 = icmp ne i32 %50, 0
  br label %52

52:                                               ; preds = %39, %29, %20, %10
  %53 = phi i1 [ false, %29 ], [ false, %20 ], [ false, %10 ], [ %51, %39 ]
  %54 = zext i1 %53 to i32
  store i32 %54, ptr %4, align 4
  br label %82

55:                                               ; preds = %3
  %56 = load ptr, ptr %5, align 8, !tbaa !39
  %57 = load i8, ptr %56, align 1, !tbaa !40
  %58 = sext i8 %57 to i32
  %59 = icmp ne i32 %58, 0
  br i1 %59, label %79, label %60

60:                                               ; preds = %55
  %61 = load ptr, ptr %5, align 8, !tbaa !39
  %62 = getelementptr inbounds i8, ptr %61, i64 1
  %63 = load i8, ptr %62, align 1, !tbaa !40
  %64 = sext i8 %63 to i32
  %65 = icmp ne i32 %64, 0
  br i1 %65, label %79, label %66

66:                                               ; preds = %60
  %67 = load ptr, ptr %5, align 8, !tbaa !39
  %68 = getelementptr inbounds i8, ptr %67, i64 48
  %69 = load i8, ptr %68, align 1, !tbaa !40
  %70 = sext i8 %69 to i32
  %71 = icmp ne i32 %70, 0
  br i1 %71, label %79, label %72

72:                                               ; preds = %66
  %73 = load ptr, ptr %5, align 8, !tbaa !39
  %74 = getelementptr inbounds i8, ptr %73, i64 48
  %75 = getelementptr inbounds i8, ptr %74, i64 1
  %76 = load i8, ptr %75, align 1, !tbaa !40
  %77 = sext i8 %76 to i32
  %78 = icmp ne i32 %77, 0
  br label %79

79:                                               ; preds = %72, %66, %60, %55
  %80 = phi i1 [ true, %66 ], [ true, %60 ], [ true, %55 ], [ %78, %72 ]
  %81 = zext i1 %80 to i32
  store i32 %81, ptr %4, align 4
  br label %82

82:                                               ; preds = %79, %52
  %83 = load i32, ptr %4, align 4
  ret i32 %83
}