; Function Attrs: nofree nosync nounwind memory(argmem: read) uwtable
define internal fastcc range(i32 0, 2) i32 @all_black(ptr noundef readonly %0, i32 noundef range(i32 0, 17) %1, i32 noundef range(i32 0, 17) %2) unnamed_addr #7 {
  %4 = icmp samesign ugt i32 %1, 3
  br i1 %4, label %.lr.ph, label %tailrecurse._crit_edge

.lr.ph:                                           ; preds = %3, %tailrecurse
  %.tr3034 = phi i32 [ %6, %tailrecurse ], [ %2, %3 ]
  %.tr2933 = phi i32 [ %5, %tailrecurse ], [ %1, %3 ]
  %.tr32 = phi ptr [ %17, %tailrecurse ], [ %0, %3 ]
  %5 = lshr i32 %.tr2933, 1
  %6 = lshr i32 %.tr3034, 1
  %7 = tail call fastcc i32 @all_black(ptr noundef %.tr32, i32 noundef %5, i32 noundef %6)
  %.not26 = icmp eq i32 %7, 0
  br i1 %.not26, label %.loopexit, label %8

8:                                                ; preds = %.lr.ph
  %9 = zext nneg i32 %5 to i64
  %10 = getelementptr inbounds nuw i8, ptr %.tr32, i64 %9
  %11 = tail call fastcc i32 @all_black(ptr noundef %10, i32 noundef %5, i32 noundef %6)
  %.not27 = icmp eq i32 %11, 0
  br i1 %.not27, label %.loopexit, label %12

12:                                               ; preds = %8
  %13 = mul nuw nsw i32 %6, 48
  %14 = zext nneg i32 %13 to i64
  %15 = getelementptr inbounds nuw i8, ptr %.tr32, i64 %14
  %16 = tail call fastcc i32 @all_black(ptr noundef %15, i32 noundef %5, i32 noundef %6)
  %.not28 = icmp eq i32 %16, 0
  br i1 %.not28, label %.loopexit, label %tailrecurse

tailrecurse:                                      ; preds = %12
  %17 = getelementptr inbounds nuw i8, ptr %15, i64 %9
  %18 = icmp samesign ugt i32 %.tr2933, 7
  br i1 %18, label %.lr.ph, label %tailrecurse._crit_edge

tailrecurse._crit_edge:                           ; preds = %tailrecurse, %3
  %.tr.lcssa = phi ptr [ %0, %3 ], [ %17, %tailrecurse ]
  %19 = load i8, ptr %.tr.lcssa, align 1, !tbaa !30
  %.not = icmp eq i8 %19, 0
  br i1 %.not, label %20, label %.loopexit

20:                                               ; preds = %tailrecurse._crit_edge
  %21 = getelementptr inbounds nuw i8, ptr %.tr.lcssa, i64 1
  %22 = load i8, ptr %21, align 1, !tbaa !30
  %.not24 = icmp eq i8 %22, 0
  br i1 %.not24, label %23, label %.loopexit

23:                                               ; preds = %20
  %24 = getelementptr inbounds nuw i8, ptr %.tr.lcssa, i64 48
  %25 = load i8, ptr %24, align 1, !tbaa !30
  %.not25 = icmp eq i8 %25, 0
  br i1 %.not25, label %26, label %.loopexit

26:                                               ; preds = %23
  %27 = getelementptr inbounds nuw i8, ptr %.tr.lcssa, i64 49
  %28 = load i8, ptr %27, align 1, !tbaa !30
  %29 = icmp ne i8 %28, 0
  %30 = zext i1 %29 to i32
  br label %.loopexit

.loopexit:                                        ; preds = %.lr.ph, %8, %12, %tailrecurse._crit_edge, %20, %23, %26
  %.0 = phi i32 [ 1, %23 ], [ 1, %20 ], [ 1, %tailrecurse._crit_edge ], [ %30, %26 ], [ 0, %12 ], [ 0, %8 ], [ 0, %.lr.ph ]
  ret i32 %.0
}